target datalayout = "e-m:e-p270:32:32-p271:32:32-p272:64:64-i64:64-i128:128-f80:128-n8:16:32:64-S128"
target triple = "x86_64-pc-linux-gnu"

%class.chashtable = type { ptr, i32, i32, i32, i32, i32, i32, i32, ptr, ptr, ptr }
%class.ast = type { i32, i32, i32, i32 }
%"struct.chashtable<ast *, obj_ptr_hash<ast>, ast_eq_proc>::cell" = type { ptr, ptr }

; Function Attrs: mustprogress nounwind uwtable
define linkonce_odr hidden void @_ZN10chashtableIP3ast12obj_ptr_hashIS0_E11ast_eq_procE4cell9mark_freeEv(ptr noundef nonnull align 8 dereferenceable(16) %0) #4 comdat align 2 {
  %2 = alloca ptr, align 8
  store ptr %0, ptr %2, align 8, !tbaa !168
  %3 = load ptr, ptr %2, align 8
  %4 = getelementptr inbounds nuw %"struct.chashtable<ast *, obj_ptr_hash<ast>, ast_eq_proc>::cell", ptr %3, i32 0, i32 0
  %5 = load ptr, ptr %4, align 8, !tbaa !169
  %6 = ptrtoint ptr %5 to i64
  %7 = or i64 %6, 1
  %8 = inttoptr i64 %7 to ptr
  %9 = getelementptr inbounds nuw %"struct.chashtable<ast *, obj_ptr_hash<ast>, ast_eq_proc>::cell", ptr %3, i32 0, i32 0
  store ptr %8, ptr %9, align 8, !tbaa !169
  ret void
}

; Function Attrs: mustprogress nounwind uwtable
define linkonce_odr hidden void @_ZN10chashtableIP3ast12obj_ptr_hashIS0_E11ast_eq_procE17push_recycle_cellEPNS5_4cellE(ptr noundef nonnull align 8 dereferenceable(64) %0, ptr noundef %1) #4 comdat align 2 {
  %3 = alloca ptr, align 8
  %4 = alloca ptr, align 8
  store ptr %0, ptr %3, align 8, !tbaa !177
  store ptr %1, ptr %4, align 8, !tbaa !168
  %5 = load ptr, ptr %3, align 8
  %6 = getelementptr inbounds nuw %class.chashtable, ptr %5, i32 0, i32 10
  %7 = load ptr, ptr %6, align 8, !tbaa !179
  %8 = load ptr, ptr %4, align 8, !tbaa !168
  %9 = getelementptr inbounds nuw %"struct.chashtable<ast *, obj_ptr_hash<ast>, ast_eq_proc>::cell", ptr %8, i32 0, i32 0
  store ptr %7, ptr %9, align 8, !tbaa !169
  %10 = load ptr, ptr %4, align 8, !tbaa !168
  %11 = getelementptr inbounds nuw %class.chashtable, ptr %5, i32 0, i32 10
  store ptr %10, ptr %11, align 8, !tbaa !179
  ret void
}

; Function Attrs: mustprogress nounwind uwtable
define linkonce_odr hidden noundef i32 @_ZNK3ast4hashEv(ptr noundef nonnull align 4 dereferenceable(16) %0) #4 comdat align 2 {
  %2 = alloca ptr, align 8
  store ptr %0, ptr %2, align 8, !tbaa !23
  %3 = load ptr, ptr %2, align 8
  %4 = getelementptr inbounds nuw %class.ast, ptr %3, i32 0, i32 3
  %5 = load i32, ptr %4, align 4, !tbaa !37
  ret i32 %5
}

; Function Attrs: mustprogress uwtable
define hidden void @_ZN9ast_table10push_eraseEP3ast(ptr noundef nonnull align 8 dereferenceable(64) %0, ptr noundef %1) #6 align 2 {
  %3 = alloca ptr, align 8
  %4 = alloca ptr, align 8
  %5 = alloca i32, align 4
  %6 = alloca i32, align 4
  %7 = alloca i32, align 4
  %8 = alloca ptr, align 8
  %9 = alloca ptr, align 8
  %10 = alloca ptr, align 8
  %11 = alloca i32, align 4
  store ptr %0, ptr %3, align 8, !tbaa !162
  store ptr %1, ptr %4, align 8, !tbaa !23
  %12 = load ptr, ptr %3, align 8
  call void @llvm.lifetime.start.p0(i64 4, ptr %5) #3
  %13 = getelementptr inbounds nuw %class.chashtable, ptr %12, i32 0, i32 4
  %14 = load i32, ptr %13, align 4, !tbaa !164
  %15 = sub i32 %14, 1
  store i32 %15, ptr %5, align 4, !tbaa !25
  call void @llvm.lifetime.start.p0(i64 4, ptr %6) #3
  %16 = load ptr, ptr %4, align 8, !tbaa !23
  %17 = call noundef i32 @_ZNK3ast4hashEv(ptr noundef nonnull align 4 dereferenceable(16) %16)
  store i32 %17, ptr %6, align 4, !tbaa !25
  call void @llvm.lifetime.start.p0(i64 4, ptr %7) #3
  %18 = load i32, ptr %6, align 4, !tbaa !25
  %19 = load i32, ptr %5, align 4, !tbaa !25
  %20 = and i32 %18, %19
  store i32 %20, ptr %7, align 4, !tbaa !25
  call void @llvm.lifetime.start.p0(i64 8, ptr %8) #3
  %21 = getelementptr inbounds nuw %class.chashtable, ptr %12, i32 0, i32 0
  %22 = load ptr, ptr %21, align 8, !tbaa !167
  %23 = load i32, ptr %7, align 4, !tbaa !25
  %24 = zext i32 %23 to i64
  %25 = getelementptr inbounds nuw %"struct.chashtable<ast *, obj_ptr_hash<ast>, ast_eq_proc>::cell", ptr %22, i64 %24
  store ptr %25, ptr %8, align 8, !tbaa !168
  call void @llvm.lifetime.start.p0(i64 8, ptr %9) #3
  store ptr null, ptr %9, align 8, !tbaa !168
  br label %26

26:                                               ; preds = %73, %2
  br label %27

27:                                               ; preds = %26
  call void @llvm.lifetime.start.p0(i64 8, ptr %10) #3
  %28 = load ptr, ptr %8, align 8, !tbaa !168
  %29 = getelementptr inbounds nuw %"struct.chashtable<ast *, obj_ptr_hash<ast>, ast_eq_proc>::cell", ptr %28, i32 0, i32 0
  %30 = load ptr, ptr %29, align 8, !tbaa !169
  store ptr %30, ptr %10, align 8, !tbaa !168
  %31 = load ptr, ptr %8, align 8, !tbaa !168
  %32 = getelementptr inbounds nuw %"struct.chashtable<ast *, obj_ptr_hash<ast>, ast_eq_proc>::cell", ptr %31, i32 0, i32 1
  %33 = load ptr, ptr %32, align 8, !tbaa !171
  %34 = load ptr, ptr %4, align 8, !tbaa !23
  %35 = icmp eq ptr %33, %34
  br i1 %35, label %36, label %65

36:                                               ; preds = %27
  %37 = getelementptr inbounds nuw %class.chashtable, ptr %12, i32 0, i32 6
  %38 = load i32, ptr %37, align 4, !tbaa !172
  %39 = add i32 %38, -1
  store i32 %39, ptr %37, align 4, !tbaa !172
  %40 = load ptr, ptr %9, align 8, !tbaa !168
  %41 = icmp eq ptr %40, null
  br i1 %41, label %42, label %59

42:                                               ; preds = %36
  %43 = load ptr, ptr %10, align 8, !tbaa !168
  %44 = icmp eq ptr %43, null
  br i1 %44, label %45, label %51

45:                                               ; preds = %42
  %46 = getelementptr inbounds nuw %class.chashtable, ptr %12, i32 0, i32 5
  %47 = load i32, ptr %46, align 8, !tbaa !173
  %48 = add i32 %47, -1
  store i32 %48, ptr %46, align 8, !tbaa !173
  %49 = load ptr, ptr %8, align 8, !tbaa !168
  call void @_ZN10chashtableIP3ast12obj_ptr_hashIS0_E11ast_eq_procE17push_recycle_cellEPNS5_4cellE(ptr noundef nonnull align 8 dereferenceable(64) %12, ptr noundef %49)
  %50 = load ptr, ptr %8, align 8, !tbaa !168
  call void @_ZN10chashtableIP3ast12obj_ptr_hashIS0_E11ast_eq_procE4cell9mark_freeEv(ptr noundef nonnull align 8 dereferenceable(16) %50)
  br label %58

51:                                               ; preds = %42
  %52 = load ptr, ptr %10, align 8, !tbaa !168
  %53 = load ptr, ptr %8, align 8, !tbaa !168
  call void @llvm.memcpy.p0.p0.i64(ptr align 8 %53, ptr align 8 %52, i64 16, i1 false), !tbaa.struct !174
  %54 = load ptr, ptr %4, align 8, !tbaa !23
  %55 = load ptr, ptr %10, align 8, !tbaa !168
  %56 = getelementptr inbounds nuw %"struct.chashtable<ast *, obj_ptr_hash<ast>, ast_eq_proc>::cell", ptr %55, i32 0, i32 1
  store ptr %54, ptr %56, align 8, !tbaa !171
  %57 = load ptr, ptr %10, align 8, !tbaa !168
  call void @_ZN10chashtableIP3ast12obj_ptr_hashIS0_E11ast_eq_procE17push_recycle_cellEPNS5_4cellE(ptr noundef nonnull align 8 dereferenceable(64) %12, ptr noundef %57)
  br label %58

58:                                               ; preds = %51, %45
  br label %64

59:                                               ; preds = %36
  %60 = load ptr, ptr %10, align 8, !tbaa !168
  %61 = load ptr, ptr %9, align 8, !tbaa !168
  %62 = getelementptr inbounds nuw %"struct.chashtable<ast *, obj_ptr_hash<ast>, ast_eq_proc>::cell", ptr %61, i32 0, i32 0
  store ptr %60, ptr %62, align 8, !tbaa !169
  %63 = load ptr, ptr %8, align 8, !tbaa !168
  call void @_ZN10chashtableIP3ast12obj_ptr_hashIS0_E11ast_eq_procE17push_recycle_cellEPNS5_4cellE(ptr noundef nonnull align 8 dereferenceable(64) %12, ptr noundef %63)
  br label %64

64:                                               ; preds = %59, %58
  store i32 1, ptr %11, align 4
  br label %71

65:                                               ; preds = %27
  %66 = getelementptr inbounds nuw %class.chashtable, ptr %12, i32 0, i32 7
  %67 = load i32, ptr %66, align 8, !tbaa !175
  %68 = add i32 %67, 1
  store i32 %68, ptr %66, align 8, !tbaa !175
  %69 = load ptr, ptr %8, align 8, !tbaa !168
  store ptr %69, ptr %9, align 8, !tbaa !168
  %70 = load ptr, ptr %10, align 8, !tbaa !168
  store ptr %70, ptr %8, align 8, !tbaa !168
  store i32 0, ptr %11, align 4
  br label %71

71:                                               ; preds = %65, %64
  call void @llvm.lifetime.end.p0(i64 8, ptr %10) #3
  %72 = load i32, ptr %11, align 4
  switch i32 %72, label %74 [
    i32 0, label %73
  ]

73:                                               ; preds = %71
  br label %26, !llvm.loop !176

74:                                               ; preds = %71
  call void @llvm.lifetime.end.p0(i64 8, ptr %9) #3
  call void @llvm.lifetime.end.p0(i64 8, ptr %8) #3
  call void @llvm.lifetime.end.p0(i64 4, ptr %7) #3
  call void @llvm.lifetime.end.p0(i64 4, ptr %6) #3
  call void @llvm.lifetime.end.p0(i64 4, ptr %5) #3
  ret void
}