; Function Attrs: mustprogress nofree norecurse nosync nounwind memory(readwrite, inaccessiblemem: none) uwtable
define hidden void @_ZN9ast_table10push_eraseEP3ast(ptr noundef nonnull align 8 captures(none) dereferenceable(64) %0, ptr noundef %1) local_unnamed_addr #11 align 2 {
  %3 = getelementptr inbounds nuw i8, ptr %0, i64 20
  %4 = load i32, ptr %3, align 4, !tbaa !149
  %5 = add i32 %4, -1
  %6 = getelementptr inbounds nuw i8, ptr %1, i64 12
  %7 = load i32, ptr %6, align 4, !tbaa !49
  %8 = and i32 %7, %5
  %9 = load ptr, ptr %0, align 8, !tbaa !152
  %10 = zext i32 %8 to i64
  %11 = getelementptr inbounds nuw %"struct.chashtable<ast *, obj_ptr_hash<ast>, ast_eq_proc>::cell", ptr %9, i64 %10
  %12 = load ptr, ptr %11, align 8, !tbaa !153
  %13 = getelementptr inbounds nuw i8, ptr %11, i64 8
  %14 = load ptr, ptr %13, align 8, !tbaa !155
  %.not29 = icmp eq ptr %14, %1
  br i1 %.not29, label %16, label %.lr.ph

.lr.ph:                                           ; preds = %2
  %15 = getelementptr inbounds nuw i8, ptr %0, i64 32
  %.promoted = load i32, ptr %15, align 8, !tbaa !156
  br label %40

16:                                               ; preds = %2
  %17 = getelementptr inbounds nuw i8, ptr %0, i64 28
  %18 = load i32, ptr %17, align 4, !tbaa !157
  %19 = add i32 %18, -1
  store i32 %19, ptr %17, align 4, !tbaa !157
  %20 = icmp eq ptr %12, null
  br i1 %20, label %21, label %30

21:                                               ; preds = %16
  %22 = getelementptr inbounds nuw i8, ptr %0, i64 24
  %23 = load i32, ptr %22, align 8, !tbaa !158
  %24 = add i32 %23, -1
  store i32 %24, ptr %22, align 8, !tbaa !158
  %25 = getelementptr inbounds nuw i8, ptr %0, i64 56
  %26 = load ptr, ptr %25, align 8, !tbaa !159
  store ptr %11, ptr %25, align 8, !tbaa !159
  %27 = ptrtoint ptr %26 to i64
  %28 = or i64 %27, 1
  %29 = inttoptr i64 %28 to ptr
  store ptr %29, ptr %11, align 8, !tbaa !153
  br label %47

30:                                               ; preds = %16
  tail call void @llvm.memcpy.p0.p0.i64(ptr noundef nonnull align 8 dereferenceable(16) %11, ptr noundef nonnull align 8 dereferenceable(16) %12, i64 16, i1 false), !tbaa.struct !160
  %31 = getelementptr inbounds nuw i8, ptr %12, i64 8
  store ptr %1, ptr %31, align 8, !tbaa !155
  %32 = getelementptr inbounds nuw i8, ptr %0, i64 56
  %33 = load ptr, ptr %32, align 8, !tbaa !159
  store ptr %33, ptr %12, align 8, !tbaa !153
  store ptr %12, ptr %32, align 8, !tbaa !159
  br label %47

34:                                               ; preds = %40
  store i32 %43, ptr %15, align 8, !tbaa !156
  %35 = getelementptr inbounds nuw i8, ptr %0, i64 28
  %36 = load i32, ptr %35, align 4, !tbaa !157
  %37 = add i32 %36, -1
  store i32 %37, ptr %35, align 4, !tbaa !157
  store ptr %44, ptr %.02230, align 8, !tbaa !153
  %38 = getelementptr inbounds nuw i8, ptr %0, i64 56
  %39 = load ptr, ptr %38, align 8, !tbaa !159
  store ptr %39, ptr %42, align 8, !tbaa !153
  store ptr %42, ptr %38, align 8, !tbaa !159
  br label %47

40:                                               ; preds = %.lr.ph, %40
  %41 = phi i32 [ %.promoted, %.lr.ph ], [ %43, %40 ]
  %42 = phi ptr [ %12, %.lr.ph ], [ %44, %40 ]
  %.02230 = phi ptr [ %11, %.lr.ph ], [ %42, %40 ]
  %43 = add i32 %41, 1
  %44 = load ptr, ptr %42, align 8, !tbaa !153
  %45 = getelementptr inbounds nuw i8, ptr %42, i64 8
  %46 = load ptr, ptr %45, align 8, !tbaa !155
  %.not = icmp eq ptr %46, %1
  br i1 %.not, label %34, label %40

47:                                               ; preds = %34, %30, %21
  ret void
}